target datalayout = "e-m:e-p270:32:32-p271:32:32-p272:64:64-i64:64-i128:128-f80:128-n8:16:32:64-S128"
target triple = "x86_64-unknown-linux-gnu"

%struct.grpc_closure = type { %union.anon, ptr, ptr, %union.anon.9 }
%union.anon = type { ptr }
%union.anon.9 = type { i64 }
%"class.grpc_core::promise_filter_detail::BaseCallData::CapturedBatch" = type { ptr }
%struct.grpc_transport_stream_op_batch = type { ptr, ptr, i8, %struct.grpc_handler_private_op_data }
%struct.grpc_handler_private_op_data = type { ptr, %struct.grpc_closure }

@.str.5 = private unnamed_addr constant [132 x i8] c"generated/home/dtcxzyw/WorkSpace/Projects/compilers/llvm-opt-benchmark/bench/grpc/grpc/src/core/lib/channel/promise_based_filter.cc\00", align 1
@.str.6 = private unnamed_addr constant [12 x i8] c"refcnt != 0\00", align 1

; Function Attrs: mustprogress nounwind uwtable
define internal noundef ptr @_ZN9grpc_core21promise_filter_detail12_GLOBAL__N_113RefCountFieldEP30grpc_transport_stream_op_batch(ptr noundef %b) #5 {
entry:
  %b.addr = alloca ptr, align 8
  store ptr %b, ptr %b.addr, align 8
  %0 = load ptr, ptr %b.addr, align 8
  %handler_private = getelementptr inbounds %struct.grpc_transport_stream_op_batch, ptr %0, i32 0, i32 3
  %closure = getelementptr inbounds %struct.grpc_handler_private_op_data, ptr %handler_private, i32 0, i32 1
  %error_data = getelementptr inbounds %struct.grpc_closure, ptr %closure, i32 0, i32 3
  ret ptr %error_data
}

; Function Attrs: mustprogress nounwind uwtable
define void @_ZN9grpc_core21promise_filter_detail12BaseCallData13CapturedBatchD2Ev(ptr noundef nonnull align 8 dereferenceable(8) %this) unnamed_addr #5 align 2 personality ptr @__gxx_personality_v0 {
entry:
  %this.addr = alloca ptr, align 8
  %refcnt = alloca ptr, align 8
  store ptr %this, ptr %this.addr, align 8
  %this1 = load ptr, ptr %this.addr, align 8
  %batch_ = getelementptr inbounds %"class.grpc_core::promise_filter_detail::BaseCallData::CapturedBatch", ptr %this1, i32 0, i32 0
  %0 = load ptr, ptr %batch_, align 8
  %cmp = icmp eq ptr %0, null
  br i1 %cmp, label %if.then, label %if.end

if.then:                                          ; preds = %entry
  br label %do.end

if.end:                                           ; preds = %entry
  %batch_2 = getelementptr inbounds %"class.grpc_core::promise_filter_detail::BaseCallData::CapturedBatch", ptr %this1, i32 0, i32 0
  %1 = load ptr, ptr %batch_2, align 8
  %call = invoke noundef ptr @_ZN9grpc_core21promise_filter_detail12_GLOBAL__N_113RefCountFieldEP30grpc_transport_stream_op_batch(ptr noundef %1)
          to label %invoke.cont unwind label %terminate.lpad

invoke.cont:                                      ; preds = %if.end
  store ptr %call, ptr %refcnt, align 8
  %2 = load ptr, ptr %refcnt, align 8
  %3 = load i64, ptr %2, align 8
  %cmp3 = icmp eq i64 %3, 0
  br i1 %cmp3, label %if.then4, label %if.end5

if.then4:                                         ; preds = %invoke.cont
  br label %do.end

if.end5:                                          ; preds = %invoke.cont
  %4 = load ptr, ptr %refcnt, align 8
  %5 = load i64, ptr %4, align 8
  %dec = add i64 %5, -1
  store i64 %dec, ptr %4, align 8
  br label %do.body

do.body:                                          ; preds = %if.end5
  %6 = load ptr, ptr %refcnt, align 8
  %7 = load i64, ptr %6, align 8
  %cmp6 = icmp ne i64 %7, 0
  %lnot = xor i1 %cmp6, true
  br i1 %lnot, label %if.then7, label %if.end9

if.then7:                                         ; preds = %do.body
  invoke void @gpr_assertion_failed(ptr noundef @.str.5, i32 noundef 184, ptr noundef @.str.6) #17
          to label %invoke.cont8 unwind label %terminate.lpad

invoke.cont8:                                     ; preds = %if.then7
  unreachable

if.end9:                                          ; preds = %do.body
  br label %do.cond

do.cond:                                          ; preds = %if.end9
  br label %do.end

do.end:                                           ; preds = %do.cond, %if.then4, %if.then
  ret void

terminate.lpad:                                   ; preds = %if.then7, %if.end
  %8 = landingpad { ptr, i32 }
          catch ptr null
  %9 = extractvalue { ptr, i32 } %8, 0
  call void @__clang_call_terminate(ptr %9) #16
  unreachable
}