; Function Attrs: mustprogress nounwind uwtable
define void @_ZN9grpc_core21promise_filter_detail12BaseCallData13CapturedBatchD2Ev(ptr nocapture noundef nonnull readonly align 8 dereferenceable(8) %this) unnamed_addr #14 align 2 personality ptr @__gxx_personality_v0 {
entry:
  %0 = load ptr, ptr %this, align 8
  %cmp = icmp eq ptr %0, null
  br i1 %cmp, label %do.end, label %if.end

if.end:                                           ; preds = %entry
  %error_data.i = getelementptr inbounds i8, ptr %0, i64 56
  %1 = load i64, ptr %error_data.i, align 8
  %cmp3 = icmp eq i64 %1, 0
  br i1 %cmp3, label %do.end, label %if.end5

if.end5:                                          ; preds = %if.end
  %dec = add i64 %1, -1
  store i64 %dec, ptr %error_data.i, align 8
  %cmp6.not = icmp eq i64 %dec, 0
  br i1 %cmp6.not, label %if.then7, label %do.end

if.then7:                                         ; preds = %if.end5
  invoke void @gpr_assertion_failed(ptr noundef nonnull @.str.5, i32 noundef 184, ptr noundef nonnull @.str.6) #33
          to label %invoke.cont8 unwind label %terminate.lpad

invoke.cont8:                                     ; preds = %if.then7
  unreachable

do.end:                                           ; preds = %if.end5, %if.end, %entry
  ret void

terminate.lpad:                                   ; preds = %if.then7
  %2 = landingpad { ptr, i32 }
          catch ptr null
  %3 = extractvalue { ptr, i32 } %2, 0
  tail call void @__clang_call_terminate(ptr %3) #32
  unreachable
}